target datalayout = "e-m:e-p270:32:32-p271:32:32-p272:64:64-i64:64-i128:128-f80:128-n8:16:32:64-S128"
target triple = "x86_64-pc-linux-gnu"

%struct._object = type { %union.anon, ptr }
%union.anon = type { i64 }
%struct._odictobject = type { %struct.PyDictObject, ptr, ptr, ptr, i64, ptr, i64, ptr, ptr }
%struct.PyDictObject = type { %struct._object, i64, i64, ptr, ptr }
%struct._odictnode = type { ptr, i64, ptr, ptr }
%struct._dictkeysobject = type { i64, i8, i8, i8, i32, i64, i64, [0 x i8] }

; Function Attrs: nounwind uwtable
define internal i64 @_odict_get_index_raw(ptr noundef %0, ptr noundef %1, i64 noundef %2) #0 {
  %4 = alloca i64, align 8
  %5 = alloca ptr, align 8
  %6 = alloca ptr, align 8
  %7 = alloca i64, align 8
  %8 = alloca ptr, align 8
  %9 = alloca ptr, align 8
  %10 = alloca i64, align 8
  %11 = alloca i32, align 4
  store ptr %0, ptr %5, align 8, !tbaa !4
  store ptr %1, ptr %6, align 8, !tbaa !42
  store i64 %2, ptr %7, align 8, !tbaa !55
  call void @llvm.lifetime.start.p0(i64 8, ptr %8) #7
  store ptr null, ptr %8, align 8, !tbaa !42
  call void @llvm.lifetime.start.p0(i64 8, ptr %9) #7
  %12 = load ptr, ptr %5, align 8, !tbaa !4
  %13 = getelementptr inbounds nuw %struct.PyDictObject, ptr %12, i32 0, i32 3
  %14 = load ptr, ptr %13, align 8, !tbaa !160
  store ptr %14, ptr %9, align 8, !tbaa !161
  call void @llvm.lifetime.start.p0(i64 8, ptr %10) #7
  %15 = load ptr, ptr %5, align 8, !tbaa !4
  %16 = load ptr, ptr %6, align 8, !tbaa !42
  %17 = load i64, ptr %7, align 8, !tbaa !55
  %18 = call i64 @_Py_dict_lookup(ptr noundef %15, ptr noundef %16, i64 noundef %17, ptr noundef %8)
  store i64 %18, ptr %10, align 8, !tbaa !55
  %19 = load i64, ptr %10, align 8, !tbaa !55
  %20 = icmp eq i64 %19, -1
  br i1 %20, label %21, label %25

21:                                               ; preds = %3
  %22 = load ptr, ptr %9, align 8, !tbaa !161
  %23 = getelementptr inbounds nuw %struct._dictkeysobject, ptr %22, i32 0, i32 6
  %24 = load i64, ptr %23, align 8, !tbaa !55
  store i64 %24, ptr %4, align 8
  store i32 1, ptr %11, align 4
  br label %31

25:                                               ; preds = %3
  %26 = load i64, ptr %10, align 8, !tbaa !55
  %27 = icmp slt i64 %26, 0
  br i1 %27, label %28, label %29

28:                                               ; preds = %25
  store i64 -1, ptr %4, align 8
  store i32 1, ptr %11, align 4
  br label %31

29:                                               ; preds = %25
  %30 = load i64, ptr %10, align 8, !tbaa !55
  store i64 %30, ptr %4, align 8
  store i32 1, ptr %11, align 4
  br label %31

31:                                               ; preds = %29, %28, %21
  call void @llvm.lifetime.end.p0(i64 8, ptr %10) #7
  call void @llvm.lifetime.end.p0(i64 8, ptr %9) #7
  call void @llvm.lifetime.end.p0(i64 8, ptr %8) #7
  %32 = load i64, ptr %4, align 8
  ret i64 %32
}

; Function Attrs: nounwind uwtable
define internal i32 @_odict_resize(ptr noundef %0) #0 {
  %2 = alloca i32, align 4
  %3 = alloca ptr, align 8
  %4 = alloca i64, align 8
  %5 = alloca i64, align 8
  %6 = alloca ptr, align 8
  %7 = alloca ptr, align 8
  %8 = alloca i32, align 4
  store ptr %0, ptr %3, align 8, !tbaa !4
  call void @llvm.lifetime.start.p0(i64 8, ptr %4) #7
  call void @llvm.lifetime.start.p0(i64 8, ptr %5) #7
  call void @llvm.lifetime.start.p0(i64 8, ptr %6) #7
  call void @llvm.lifetime.start.p0(i64 8, ptr %7) #7
  %9 = load ptr, ptr %3, align 8, !tbaa !4
  %10 = getelementptr inbounds nuw %struct.PyDictObject, ptr %9, i32 0, i32 3
  %11 = load ptr, ptr %10, align 8, !tbaa !160
  %12 = getelementptr inbounds nuw %struct._dictkeysobject, ptr %11, i32 0, i32 1
  %13 = load i8, ptr %12, align 8, !tbaa !74
  %14 = zext i8 %13 to i32
  %15 = zext i32 %14 to i64
  %16 = shl i64 1, %15
  store i64 %16, ptr %4, align 8, !tbaa !55
  %17 = load i64, ptr %4, align 8, !tbaa !55
  %18 = icmp ugt i64 %17, 1152921504606846975
  br i1 %18, label %19, label %20

19:                                               ; preds = %1
  br label %24

20:                                               ; preds = %1
  %21 = load i64, ptr %4, align 8, !tbaa !55
  %22 = mul i64 %21, 8
  %23 = call ptr @PyMem_Malloc(i64 noundef %22)
  br label %24

24:                                               ; preds = %20, %19
  %25 = phi ptr [ null, %19 ], [ %23, %20 ]
  store ptr %25, ptr %6, align 8, !tbaa !162
  %26 = load ptr, ptr %6, align 8, !tbaa !162
  %27 = icmp eq ptr %26, null
  br i1 %27, label %28, label %30

28:                                               ; preds = %24
  %29 = call ptr @PyErr_NoMemory()
  store i32 -1, ptr %2, align 4
  store i32 1, ptr %8, align 4
  br label %86

30:                                               ; preds = %24
  store i64 0, ptr %5, align 8, !tbaa !55
  br label %31

31:                                               ; preds = %39, %30
  %32 = load i64, ptr %5, align 8, !tbaa !55
  %33 = load i64, ptr %4, align 8, !tbaa !55
  %34 = icmp slt i64 %32, %33
  br i1 %34, label %35, label %42

35:                                               ; preds = %31
  %36 = load ptr, ptr %6, align 8, !tbaa !162
  %37 = load i64, ptr %5, align 8, !tbaa !55
  %38 = getelementptr ptr, ptr %36, i64 %37
  store ptr null, ptr %38, align 8, !tbaa !46
  br label %39

39:                                               ; preds = %35
  %40 = load i64, ptr %5, align 8, !tbaa !55
  %41 = add i64 %40, 1
  store i64 %41, ptr %5, align 8, !tbaa !55
  br label %31, !llvm.loop !163

42:                                               ; preds = %31
  %43 = load ptr, ptr %3, align 8, !tbaa !4
  %44 = getelementptr inbounds nuw %struct._odictobject, ptr %43, i32 0, i32 1
  %45 = load ptr, ptr %44, align 8, !tbaa !45
  store ptr %45, ptr %7, align 8, !tbaa !46
  br label %46

46:                                               ; preds = %67, %42
  %47 = load ptr, ptr %7, align 8, !tbaa !46
  %48 = icmp ne ptr %47, null
  br i1 %48, label %49, label %71

49:                                               ; preds = %46
  %50 = load ptr, ptr %3, align 8, !tbaa !4
  %51 = load ptr, ptr %7, align 8, !tbaa !46
  %52 = getelementptr inbounds nuw %struct._odictnode, ptr %51, i32 0, i32 0
  %53 = load ptr, ptr %52, align 8, !tbaa !47
  %54 = load ptr, ptr %7, align 8, !tbaa !46
  %55 = getelementptr inbounds nuw %struct._odictnode, ptr %54, i32 0, i32 1
  %56 = load i64, ptr %55, align 8, !tbaa !156
  %57 = call i64 @_odict_get_index_raw(ptr noundef %50, ptr noundef %53, i64 noundef %56)
  store i64 %57, ptr %5, align 8, !tbaa !55
  %58 = load i64, ptr %5, align 8, !tbaa !55
  %59 = icmp slt i64 %58, 0
  br i1 %59, label %60, label %62

60:                                               ; preds = %49
  %61 = load ptr, ptr %6, align 8, !tbaa !162
  call void @PyMem_Free(ptr noundef %61)
  store i32 -1, ptr %2, align 4
  store i32 1, ptr %8, align 4
  br label %86

62:                                               ; preds = %49
  %63 = load ptr, ptr %7, align 8, !tbaa !46
  %64 = load ptr, ptr %6, align 8, !tbaa !162
  %65 = load i64, ptr %5, align 8, !tbaa !55
  %66 = getelementptr ptr, ptr %64, i64 %65
  store ptr %63, ptr %66, align 8, !tbaa !46
  br label %67

67:                                               ; preds = %62
  %68 = load ptr, ptr %7, align 8, !tbaa !46
  %69 = getelementptr inbounds nuw %struct._odictnode, ptr %68, i32 0, i32 2
  %70 = load ptr, ptr %69, align 8, !tbaa !49
  store ptr %70, ptr %7, align 8, !tbaa !46
  br label %46, !llvm.loop !164

71:                                               ; preds = %46
  %72 = load ptr, ptr %3, align 8, !tbaa !4
  %73 = getelementptr inbounds nuw %struct._odictobject, ptr %72, i32 0, i32 3
  %74 = load ptr, ptr %73, align 8, !tbaa !58
  call void @PyMem_Free(ptr noundef %74)
  %75 = load ptr, ptr %6, align 8, !tbaa !162
  %76 = load ptr, ptr %3, align 8, !tbaa !4
  %77 = getelementptr inbounds nuw %struct._odictobject, ptr %76, i32 0, i32 3
  store ptr %75, ptr %77, align 8, !tbaa !58
  %78 = load i64, ptr %4, align 8, !tbaa !55
  %79 = load ptr, ptr %3, align 8, !tbaa !4
  %80 = getelementptr inbounds nuw %struct._odictobject, ptr %79, i32 0, i32 4
  store i64 %78, ptr %80, align 8, !tbaa !69
  %81 = load ptr, ptr %3, align 8, !tbaa !4
  %82 = getelementptr inbounds nuw %struct.PyDictObject, ptr %81, i32 0, i32 3
  %83 = load ptr, ptr %82, align 8, !tbaa !160
  %84 = load ptr, ptr %3, align 8, !tbaa !4
  %85 = getelementptr inbounds nuw %struct._odictobject, ptr %84, i32 0, i32 5
  store ptr %83, ptr %85, align 8, !tbaa !70
  store i32 0, ptr %2, align 4
  store i32 1, ptr %8, align 4
  br label %86

86:                                               ; preds = %71, %60, %28
  call void @llvm.lifetime.end.p0(i64 8, ptr %7) #7
  call void @llvm.lifetime.end.p0(i64 8, ptr %6) #7
  call void @llvm.lifetime.end.p0(i64 8, ptr %5) #7
  call void @llvm.lifetime.end.p0(i64 8, ptr %4) #7
  %87 = load i32, ptr %2, align 4
  ret i32 %87
}

; Function Attrs: nounwind uwtable
define internal i64 @_odict_get_index(ptr noundef %0, ptr noundef %1, i64 noundef %2) #0 {
  %4 = alloca i64, align 8
  %5 = alloca ptr, align 8
  %6 = alloca ptr, align 8
  %7 = alloca i64, align 8
  %8 = alloca ptr, align 8
  %9 = alloca i32, align 4
  %10 = alloca i32, align 4
  store ptr %0, ptr %5, align 8, !tbaa !4
  store ptr %1, ptr %6, align 8, !tbaa !42
  store i64 %2, ptr %7, align 8, !tbaa !55
  call void @llvm.lifetime.start.p0(i64 8, ptr %8) #7
  %11 = load ptr, ptr %5, align 8, !tbaa !4
  %12 = getelementptr inbounds nuw %struct.PyDictObject, ptr %11, i32 0, i32 3
  %13 = load ptr, ptr %12, align 8, !tbaa !160
  store ptr %13, ptr %8, align 8, !tbaa !161
  %14 = load ptr, ptr %5, align 8, !tbaa !4
  %15 = getelementptr inbounds nuw %struct._odictobject, ptr %14, i32 0, i32 5
  %16 = load ptr, ptr %15, align 8, !tbaa !70
  %17 = load ptr, ptr %8, align 8, !tbaa !161
  %18 = icmp ne ptr %16, %17
  br i1 %18, label %30, label %19

19:                                               ; preds = %3
  %20 = load ptr, ptr %5, align 8, !tbaa !4
  %21 = getelementptr inbounds nuw %struct._odictobject, ptr %20, i32 0, i32 4
  %22 = load i64, ptr %21, align 8, !tbaa !69
  %23 = load ptr, ptr %8, align 8, !tbaa !161
  %24 = getelementptr inbounds nuw %struct._dictkeysobject, ptr %23, i32 0, i32 1
  %25 = load i8, ptr %24, align 8, !tbaa !74
  %26 = zext i8 %25 to i32
  %27 = zext i32 %26 to i64
  %28 = shl i64 1, %27
  %29 = icmp ne i64 %22, %28
  br i1 %29, label %30, label %40

30:                                               ; preds = %19, %3
  call void @llvm.lifetime.start.p0(i64 4, ptr %9) #7
  %31 = load ptr, ptr %5, align 8, !tbaa !4
  %32 = call i32 @_odict_resize(ptr noundef %31)
  store i32 %32, ptr %9, align 4, !tbaa !43
  %33 = load i32, ptr %9, align 4, !tbaa !43
  %34 = icmp slt i32 %33, 0
  br i1 %34, label %35, label %36

35:                                               ; preds = %30
  store i64 -1, ptr %4, align 8
  store i32 1, ptr %10, align 4
  br label %37

36:                                               ; preds = %30
  store i32 0, ptr %10, align 4
  br label %37

37:                                               ; preds = %36, %35
  call void @llvm.lifetime.end.p0(i64 4, ptr %9) #7
  %38 = load i32, ptr %10, align 4
  switch i32 %38, label %45 [
    i32 0, label %39
  ]

39:                                               ; preds = %37
  br label %40

40:                                               ; preds = %39, %19
  %41 = load ptr, ptr %5, align 8, !tbaa !4
  %42 = load ptr, ptr %6, align 8, !tbaa !42
  %43 = load i64, ptr %7, align 8, !tbaa !55
  %44 = call i64 @_odict_get_index_raw(ptr noundef %41, ptr noundef %42, i64 noundef %43)
  store i64 %44, ptr %4, align 8
  store i32 1, ptr %10, align 4
  br label %45

45:                                               ; preds = %40, %37
  call void @llvm.lifetime.end.p0(i64 8, ptr %8) #7
  %46 = load i64, ptr %4, align 8
  ret i64 %46
}