; Function Attrs: nounwind uwtable
define internal fastcc i64 @_odict_get_index(ptr noundef %0, ptr noundef %1, i64 noundef %2) unnamed_addr #0 {
  %4 = alloca ptr, align 8
  %5 = alloca ptr, align 8
  %6 = getelementptr inbounds nuw i8, ptr %0, i64 32
  %7 = load ptr, ptr %6, align 8, !tbaa !150
  %8 = getelementptr inbounds nuw i8, ptr %0, i64 80
  %9 = load ptr, ptr %8, align 8, !tbaa !151
  %.not = icmp eq ptr %9, %7
  br i1 %.not, label %10, label %._crit_edge

._crit_edge:                                      ; preds = %3
  %.phi.trans.insert = getelementptr inbounds nuw i8, ptr %7, i64 8
  %.pre = load i8, ptr %.phi.trans.insert, align 8, !tbaa !38
  %.pre16 = zext nneg i8 %.pre to i64
  %.pre17 = shl nuw i64 1, %.pre16
  br label %17

10:                                               ; preds = %3
  %11 = getelementptr inbounds nuw i8, ptr %0, i64 72
  %12 = load i64, ptr %11, align 8, !tbaa !147
  %13 = getelementptr inbounds nuw i8, ptr %7, i64 8
  %14 = load i8, ptr %13, align 8, !tbaa !38
  %15 = zext nneg i8 %14 to i64
  %16 = shl nuw i64 1, %15
  %.not13 = icmp eq i64 %12, %16
  br i1 %.not13, label %46, label %17

17:                                               ; preds = %._crit_edge, %10
  %.pre-phi18 = phi i64 [ %.pre17, %._crit_edge ], [ %16, %10 ]
  %.pre-phi = phi i64 [ %.pre16, %._crit_edge ], [ %15, %10 ]
  %18 = phi i8 [ %.pre, %._crit_edge ], [ %14, %10 ]
  %19 = icmp ugt i8 %18, 59
  br i1 %19, label %.thread.i, label %20

20:                                               ; preds = %17
  %21 = shl nuw i64 8, %.pre-phi
  %22 = tail call ptr @PyMem_Malloc(i64 noundef %21) #8
  %23 = icmp eq ptr %22, null
  br i1 %23, label %.thread.i, label %._crit_edge.i

.thread.i:                                        ; preds = %20, %17
  %24 = tail call ptr @PyErr_NoMemory() #8
  br label %_odict_resize.exit.thread

._crit_edge.i:                                    ; preds = %20
  %smax.i = tail call i64 @llvm.smax.i64(i64 %.pre-phi18, i64 1)
  %25 = shl nuw i64 %smax.i, 3
  tail call void @llvm.memset.p0.i64(ptr noundef nonnull align 8 dereferenceable(1) %22, i8 0, i64 %25, i1 false), !tbaa !50
  %26 = getelementptr inbounds nuw i8, ptr %0, i64 48
  %.033.i = load ptr, ptr %26, align 8, !tbaa !50
  %.not34.i = icmp eq ptr %.033.i, null
  br i1 %.not34.i, label %_odict_resize.exit, label %.lr.ph37.i

.lr.ph37.i:                                       ; preds = %._crit_edge.i, %39
  %.035.i = phi ptr [ %.0.i, %39 ], [ %.033.i, %._crit_edge.i ]
  %27 = load ptr, ptr %.035.i, align 8, !tbaa !44
  %28 = getelementptr inbounds nuw i8, ptr %.035.i, i64 8
  %29 = load i64, ptr %28, align 8, !tbaa !138
  call void @llvm.lifetime.start.p0(i64 8, ptr nonnull %5) #8
  store ptr null, ptr %5, align 8, !tbaa !53
  %30 = load ptr, ptr %6, align 8, !tbaa !150
  %31 = call i64 @_Py_dict_lookup(ptr noundef nonnull %0, ptr noundef %27, i64 noundef %29, ptr noundef nonnull %5) #8
  %32 = icmp eq i64 %31, -1
  br i1 %32, label %33, label %36

33:                                               ; preds = %.lr.ph37.i
  %34 = getelementptr inbounds nuw i8, ptr %30, i64 24
  %35 = load i64, ptr %34, align 8, !tbaa !152
  br label %_odict_get_index_raw.exit.i

36:                                               ; preds = %.lr.ph37.i
  %..i.i = call i64 @llvm.smax.i64(i64 %31, i64 -1)
  br label %_odict_get_index_raw.exit.i

_odict_get_index_raw.exit.i:                      ; preds = %36, %33
  %.0.i.i = phi i64 [ %35, %33 ], [ %..i.i, %36 ]
  call void @llvm.lifetime.end.p0(i64 8, ptr nonnull %5) #8
  %37 = icmp slt i64 %.0.i.i, 0
  br i1 %37, label %38, label %39

38:                                               ; preds = %_odict_get_index_raw.exit.i
  call void @PyMem_Free(ptr noundef nonnull %22) #8
  br label %_odict_resize.exit.thread

39:                                               ; preds = %_odict_get_index_raw.exit.i
  %40 = getelementptr ptr, ptr %22, i64 %.0.i.i
  store ptr %.035.i, ptr %40, align 8, !tbaa !50
  %41 = getelementptr inbounds nuw i8, ptr %.035.i, i64 16
  %.0.i = load ptr, ptr %41, align 8, !tbaa !50
  %.not.i = icmp eq ptr %.0.i, null
  br i1 %.not.i, label %_odict_resize.exit, label %.lr.ph37.i, !llvm.loop !153

_odict_resize.exit:                               ; preds = %39, %._crit_edge.i
  %42 = getelementptr inbounds nuw i8, ptr %0, i64 64
  %43 = load ptr, ptr %42, align 8, !tbaa !40
  call void @PyMem_Free(ptr noundef %43) #8
  store ptr %22, ptr %42, align 8, !tbaa !40
  %44 = getelementptr inbounds nuw i8, ptr %0, i64 72
  store i64 %.pre-phi18, ptr %44, align 8, !tbaa !147
  %45 = load ptr, ptr %6, align 8, !tbaa !150
  store ptr %45, ptr %8, align 8, !tbaa !151
  br label %46

46:                                               ; preds = %_odict_resize.exit, %10
  %47 = phi ptr [ %45, %_odict_resize.exit ], [ %7, %10 ]
  call void @llvm.lifetime.start.p0(i64 8, ptr nonnull %4) #8
  store ptr null, ptr %4, align 8, !tbaa !53
  %48 = call i64 @_Py_dict_lookup(ptr noundef nonnull %0, ptr noundef %1, i64 noundef %2, ptr noundef nonnull %4) #8
  %49 = icmp eq i64 %48, -1
  br i1 %49, label %50, label %53

50:                                               ; preds = %46
  %51 = getelementptr inbounds nuw i8, ptr %47, i64 24
  %52 = load i64, ptr %51, align 8, !tbaa !152
  br label %_odict_get_index_raw.exit

53:                                               ; preds = %46
  %..i = call i64 @llvm.smax.i64(i64 %48, i64 -1)
  br label %_odict_get_index_raw.exit

_odict_get_index_raw.exit:                        ; preds = %50, %53
  %.0.i14 = phi i64 [ %52, %50 ], [ %..i, %53 ]
  call void @llvm.lifetime.end.p0(i64 8, ptr nonnull %4) #8
  br label %_odict_resize.exit.thread

_odict_resize.exit.thread:                        ; preds = %38, %.thread.i, %_odict_get_index_raw.exit
  %.1 = phi i64 [ %.0.i14, %_odict_get_index_raw.exit ], [ -1, %.thread.i ], [ -1, %38 ]
  ret i64 %.1
}